; Function Attrs: null_pointer_is_valid sspstrong uwtable
define internal i32 @fileexp_dissect_setcontext_rqst(ptr noundef %0, i32 noundef %1, ptr noundef %2, ptr noundef %3, ptr noundef %4, ptr noundef %5) #0 {
  %7 = alloca i32, align 4
  %8 = alloca i32, align 4
  %9 = alloca i32, align 4
  call void @llvm.lifetime.start.p0(i64 4, ptr nonnull %7) #4
  call void @llvm.lifetime.start.p0(i64 4, ptr nonnull %8) #4
  call void @llvm.lifetime.start.p0(i64 4, ptr nonnull %9) #4
  %10 = getelementptr inbounds nuw i8, ptr %4, i64 25
  %11 = load i8, ptr %10, align 1, !range !6, !noundef !7
  %12 = trunc nuw i8 %11 to i1
  br i1 %12, label %29, label %13

13:                                               ; preds = %6
  %14 = load i32, ptr @hf_fileexp_setcontext_rqst_epochtime, align 4
  %15 = call i32 @dissect_dcerpc_time_t(ptr noundef %0, i32 noundef %1, ptr noundef %2, ptr noundef %3, ptr noundef %5, i32 noundef %14, ptr noundef nonnull %7)
  %16 = call i32 @dissect_ndr_pointer(ptr noundef %0, i32 noundef %15, ptr noundef %2, ptr noundef %3, ptr noundef %4, ptr noundef %5, ptr noundef nonnull @dissect_afsNetData, i32 noundef 1, ptr noundef nonnull @.str.337, i32 noundef -1)
  %17 = call i32 @dissect_afsFlags(ptr noundef %0, i32 noundef %16, ptr noundef %2, ptr noundef %3, ptr noundef %4, ptr noundef %5)
  %18 = getelementptr inbounds nuw i8, ptr %2, i64 8
  %19 = load ptr, ptr %18, align 8
  call void @col_append_str(ptr noundef %19, i32 noundef 25, ptr noundef nonnull @.str.338)
  %20 = call i32 @dissect_ndr_pointer(ptr noundef %0, i32 noundef %17, ptr noundef %2, ptr noundef %3, ptr noundef %4, ptr noundef %5, ptr noundef nonnull @dissect_afsuuid, i32 noundef 1, ptr noundef nonnull @.str.339, i32 noundef -1)
  %21 = load i32, ptr @hf_fileexp_setcontext_rqst_clientsizesattrs, align 4
  %22 = call i32 @dissect_ndr_uint32(ptr noundef %0, i32 noundef %20, ptr noundef %2, ptr noundef %3, ptr noundef %4, ptr noundef %5, i32 noundef %21, ptr noundef nonnull %8)
  %23 = load i32, ptr @hf_fileexp_setcontext_rqst_parm7, align 4
  %24 = call i32 @dissect_ndr_uint32(ptr noundef %0, i32 noundef %22, ptr noundef %2, ptr noundef %3, ptr noundef %4, ptr noundef %5, i32 noundef %23, ptr noundef nonnull %9)
  %25 = load ptr, ptr %18, align 8
  %26 = load i32, ptr %7, align 4
  %27 = load i32, ptr %8, align 4
  %28 = load i32, ptr %9, align 4
  call void (ptr, i32, ptr, ...) @col_append_fstr(ptr noundef %25, i32 noundef 25, ptr noundef nonnull @.str.340, i32 noundef %26, i32 noundef %27, i32 noundef %28)
  br label %29

29:                                               ; preds = %6, %13
  %.0 = phi i32 [ %24, %13 ], [ %1, %6 ]
  call void @llvm.lifetime.end.p0(i64 4, ptr nonnull %9) #4
  call void @llvm.lifetime.end.p0(i64 4, ptr nonnull %8) #4
  call void @llvm.lifetime.end.p0(i64 4, ptr nonnull %7) #4
  ret i32 %.0
}